Certificate:
    Data:
        Version: 3 (0x2)
        Serial Number:
            b4:78:d5:4f:5f:91:74:fc
    Signature Algorithm: sha256WithRSAEncryption
        Issuer: C=US, ST=Hawaii, L=Kamuela, O=BrainCraft.io, OU=CertAuthority BCIO IT Services, CN=IT Services/emailAddress=it.services@braincraft.io
        Validity
            Not Before: Aug 20 15:46:33 2018 GMT
            Not After : Aug 20 15:46:33 2019 GMT
        Subject: C=US, ST=Hawaii, L=Kamuela, O=BrainCraft.io, OU=CertAuthority BCIO IT Services, CN=IT Services/emailAddress=it.services@braincraft.io
        Subject Public Key Info:
            Public Key Algorithm: rsaEncryption
                Public-Key: (1024 bit)
                Modulus:
                    00:d6:92:af:3b:41:a8:68:8d:5d:c4:ce:35:9e:8a:
                    22:c2:6e:c0:f2:72:97:a8:8f:ac:a0:0a:05:83:66:
                    97:83:61:98:ea:ad:69:6b:2a:43:de:30:3c:81:a7:
                    a4:55:4f:9e:dd:dd:b0:0d:b5:8b:6b:94:f8:98:d0:
                    d6:b4:aa:5b:c3:50:42:2d:93:8c:0d:bf:e3:b3:0b:
                    fd:8e:b6:a7:8b:a6:93:95:34:cd:ee:dc:80:ad:b7:
                    fc:85:dd:9c:0c:ad:51:c0:91:92:bd:a2:18:c3:fa:
                    33:e1:b9:78:31:27:aa:cf:3c:14:47:4d:a6:89:9b:
                    3c:99:d4:02:b9:e1:da:f1:3f
                Exponent: 65537 (0x10001)
        X509v3 extensions:
            X509v3 Basic Constraints: 
                CA:FALSE
            Netscape Comment: 
                BCIO CertAuthority OpenSSL Generated Certificate
            X509v3 Subject Key Identifier: 
                87:92:D1:45:FE:7D:13:D7:64:34:78:DF:A3:CF:CA:22:74:A4:C3:56
            X509v3 Authority Key Identifier: 
                keyid:4E:2E:BE:4D:02:CB:93:FB:8B:5A:B6:BA:BF:DA:D2:F9:5C:01:7F:C9
                DirName:/C=US/ST=Hawaii/L=Kamuela/O=BrainCraft.io/OU=CertAuthority BCIO IT Services/CN=IT Services/emailAddress=it.services@braincraft.io
                serial:B4:78:D5:4F:5F:91:74:FA

    Signature Algorithm: sha256WithRSAEncryption
         97:6d:45:91:e2:5d:2f:70:b2:92:7f:5c:c5:9d:f8:6d:e9:ed:
         87:b5:5e:a6:8e:26:2c:bb:01:3f:14:d4:e2:41:7a:d9:05:b6:
         77:a7:b5:48:6a:7a:d1:bc:e6:05:21:40:8b:72:5a:7b:1c:c4:
         42:0d:44:5b:93:b2:ba:77:a1:ee:0b:33:eb:e5:df:f2:1f:3b:
         97:08:e1:96:bb:74:f4:34:61:0a:a5:64:95:1a:16:18:af:28:
         83:f8:17:8c:8b:f7:bd:25:6b:48:bd:d7:65:43:b9:f1:99:c6:
         da:10:96:08:1f:77:ac:10:3c:78:cc:7a:8f:17:84:41:a3:07:
         4c:d9
-----BEGIN CERTIFICATE-----
MIIEPDCCA6WgAwIBAgIJALR41U9fkXT8MA0GCSqGSIb3DQEBCwUAMIGxMQswCQYD
VQQGEwJVUzEPMA0GA1UECBMGSGF3YWlpMRAwDgYDVQQHEwdLYW11ZWxhMRYwFAYD
VQQKEw1CcmFpbkNyYWZ0LmlvMScwJQYDVQQLEx5DZXJ0QXV0aG9yaXR5IEJDSU8g
SVQgU2VydmljZXMxFDASBgNVBAMTC0lUIFNlcnZpY2VzMSgwJgYJKoZIhvcNAQkB
FhlpdC5zZXJ2aWNlc0BicmFpbmNyYWZ0LmlvMB4XDTE4MDgyMDE1NDYzM1oXDTE5
MDgyMDE1NDYzM1owgbExCzAJBgNVBAYTAlVTMQ8wDQYDVQQIEwZIYXdhaWkxEDAO
BgNVBAcTB0thbXVlbGExFjAUBgNVBAoTDUJyYWluQ3JhZnQuaW8xJzAlBgNVBAsT
HkNlcnRBdXRob3JpdHkgQkNJTyBJVCBTZXJ2aWNlczEUMBIGA1UEAxMLSVQgU2Vy
dmljZXMxKDAmBgkqhkiG9w0BCQEWGWl0LnNlcnZpY2VzQGJyYWluY3JhZnQuaW8w
gZ8wDQYJKoZIhvcNAQEBBQADgY0AMIGJAoGBANaSrztBqGiNXcTONZ6KIsJuwPJy
l6iPrKAKBYNml4NhmOqtaWsqQ94wPIGnpFVPnt3dsA21i2uU+JjQ1rSqW8NQQi2T
jA2/47ML/Y62p4umk5U0ze7cgK23/IXdnAytUcCRkr2iGMP6M+G5eDEnqs88FEdN
pombPJnUArnh2vE/AgMBAAGjggFYMIIBVDAJBgNVHRMEAjAAMD8GCWCGSAGG+EIB
DQQyFjBCQ0lPIENlcnRBdXRob3JpdHkgT3BlblNTTCBHZW5lcmF0ZWQgQ2VydGlm
aWNhdGUwHQYDVR0OBBYEFIeS0UX+fRPXZDR436PPyiJ0pMNWMIHmBgNVHSMEgd4w
gduAFE4uvk0Cy5P7i1q2ur/a0vlcAX/JoYG3pIG0MIGxMQswCQYDVQQGEwJVUzEP
MA0GA1UECBMGSGF3YWlpMRAwDgYDVQQHEwdLYW11ZWxhMRYwFAYDVQQKEw1CcmFp
bkNyYWZ0LmlvMScwJQYDVQQLEx5DZXJ0QXV0aG9yaXR5IEJDSU8gSVQgU2Vydmlj
ZXMxFDASBgNVBAMTC0lUIFNlcnZpY2VzMSgwJgYJKoZIhvcNAQkBFhlpdC5zZXJ2
aWNlc0BicmFpbmNyYWZ0LmlvggkAtHjVT1+RdPowDQYJKoZIhvcNAQELBQADgYEA
l21FkeJdL3Cykn9cxZ34benth7Vepo4mLLsBPxTU4kF62QW2d6e1SGp60bzmBSFA
i3JaexzEQg1EW5Oyuneh7gsz6+Xf8h87lwjhlrt09DRhCqVklRoWGK8og/gXjIv3
vSVrSL3XZUO58ZnG2hCWCB93rBA8eMx6jxeEQaMHTNk=
-----END CERTIFICATE-----
