Certificate:
    Data:
        Version: 3 (0x2)
        Serial Number:
            b4:78:d5:4f:5f:91:74:fb
    Signature Algorithm: sha256WithRSAEncryption
        Issuer: C=US, ST=Hawaii, L=Kamuela, O=BrainCraft.io, OU=CertAuthority BCIO IT Services, CN=IT Services/emailAddress=it.services@braincraft.io
        Validity
            Not Before: Aug 20 15:43:49 2018 GMT
            Not After : Aug 20 15:43:49 2019 GMT
        Subject: C=US, ST=Hawaii, L=Kamuela, O=BrainCraft.io, OU=CertAuthority BCIO IT Services, CN=IT Services/emailAddress=it.services@braincraft.io
        Subject Public Key Info:
            Public Key Algorithm: rsaEncryption
                Public-Key: (1024 bit)
                Modulus:
                    00:cf:24:3a:0a:64:89:8b:82:1f:54:4c:c9:d2:e2:
                    5e:76:ba:63:0f:f2:d0:90:1d:37:f9:55:c0:75:ef:
                    b1:78:64:b0:ad:1f:28:15:e0:7b:c8:8f:ba:dd:9e:
                    f0:90:d6:16:af:92:50:f6:13:aa:81:e2:8c:83:8b:
                    ff:63:b5:cf:d2:ba:25:c3:53:9a:a0:99:f8:f1:5b:
                    03:78:79:8e:b8:76:ea:f5:b9:a1:07:4a:7b:de:b2:
                    f8:4b:11:2f:c7:b9:a1:56:78:a8:e2:56:48:cd:fd:
                    48:08:57:16:18:46:7c:a0:fd:d8:40:36:25:8d:99:
                    80:9a:0a:95:65:56:b9:73:b7
                Exponent: 65537 (0x10001)
        X509v3 extensions:
            X509v3 Basic Constraints: 
                CA:FALSE
            Netscape Comment: 
                BCIO CertAuthority OpenSSL Generated Certificate
            X509v3 Subject Key Identifier: 
                B3:B6:E5:D8:A0:A5:CE:D0:17:92:F4:6D:53:AB:E1:99:6B:AA:40:2A
            X509v3 Authority Key Identifier: 
                keyid:4E:2E:BE:4D:02:CB:93:FB:8B:5A:B6:BA:BF:DA:D2:F9:5C:01:7F:C9
                DirName:/C=US/ST=Hawaii/L=Kamuela/O=BrainCraft.io/OU=CertAuthority BCIO IT Services/CN=IT Services/emailAddress=it.services@braincraft.io
                serial:B4:78:D5:4F:5F:91:74:FA

    Signature Algorithm: sha256WithRSAEncryption
         66:8d:ef:ad:ab:b1:a2:48:6d:07:c3:54:87:a6:37:ac:a2:3d:
         39:27:5a:2e:9e:23:86:16:ce:b5:da:5d:f8:6a:17:7d:b5:94:
         fa:73:eb:14:62:4d:46:2d:33:79:e5:16:d5:3e:e7:a6:79:66:
         58:12:33:64:c1:3c:e6:9e:98:f1:ca:70:d0:46:63:42:88:bb:
         4a:08:26:e8:0f:32:71:58:39:df:f5:2e:07:0e:90:4c:32:7a:
         ab:06:29:65:e1:83:1a:84:51:ed:03:b1:13:76:b7:95:ed:6e:
         10:24:41:fe:74:f6:57:36:4d:84:1a:a5:1d:09:b8:75:d4:30:
         c3:c7
-----BEGIN CERTIFICATE-----
MIIEPDCCA6WgAwIBAgIJALR41U9fkXT7MA0GCSqGSIb3DQEBCwUAMIGxMQswCQYD
VQQGEwJVUzEPMA0GA1UECBMGSGF3YWlpMRAwDgYDVQQHEwdLYW11ZWxhMRYwFAYD
VQQKEw1CcmFpbkNyYWZ0LmlvMScwJQYDVQQLEx5DZXJ0QXV0aG9yaXR5IEJDSU8g
SVQgU2VydmljZXMxFDASBgNVBAMTC0lUIFNlcnZpY2VzMSgwJgYJKoZIhvcNAQkB
FhlpdC5zZXJ2aWNlc0BicmFpbmNyYWZ0LmlvMB4XDTE4MDgyMDE1NDM0OVoXDTE5
MDgyMDE1NDM0OVowgbExCzAJBgNVBAYTAlVTMQ8wDQYDVQQIEwZIYXdhaWkxEDAO
BgNVBAcTB0thbXVlbGExFjAUBgNVBAoTDUJyYWluQ3JhZnQuaW8xJzAlBgNVBAsT
HkNlcnRBdXRob3JpdHkgQkNJTyBJVCBTZXJ2aWNlczEUMBIGA1UEAxMLSVQgU2Vy
dmljZXMxKDAmBgkqhkiG9w0BCQEWGWl0LnNlcnZpY2VzQGJyYWluY3JhZnQuaW8w
gZ8wDQYJKoZIhvcNAQEBBQADgY0AMIGJAoGBAM8kOgpkiYuCH1RMydLiXna6Yw/y
0JAdN/lVwHXvsXhksK0fKBXge8iPut2e8JDWFq+SUPYTqoHijIOL/2O1z9K6JcNT
mqCZ+PFbA3h5jrh26vW5oQdKe96y+EsRL8e5oVZ4qOJWSM39SAhXFhhGfKD92EA2
JY2ZgJoKlWVWuXO3AgMBAAGjggFYMIIBVDAJBgNVHRMEAjAAMD8GCWCGSAGG+EIB
DQQyFjBCQ0lPIENlcnRBdXRob3JpdHkgT3BlblNTTCBHZW5lcmF0ZWQgQ2VydGlm
aWNhdGUwHQYDVR0OBBYEFLO25digpc7QF5L0bVOr4ZlrqkAqMIHmBgNVHSMEgd4w
gduAFE4uvk0Cy5P7i1q2ur/a0vlcAX/JoYG3pIG0MIGxMQswCQYDVQQGEwJVUzEP
MA0GA1UECBMGSGF3YWlpMRAwDgYDVQQHEwdLYW11ZWxhMRYwFAYDVQQKEw1CcmFp
bkNyYWZ0LmlvMScwJQYDVQQLEx5DZXJ0QXV0aG9yaXR5IEJDSU8gSVQgU2Vydmlj
ZXMxFDASBgNVBAMTC0lUIFNlcnZpY2VzMSgwJgYJKoZIhvcNAQkBFhlpdC5zZXJ2
aWNlc0BicmFpbmNyYWZ0LmlvggkAtHjVT1+RdPowDQYJKoZIhvcNAQELBQADgYEA
Zo3vrauxokhtB8NUh6Y3rKI9OSdaLp4jhhbOtdpd+GoXfbWU+nPrFGJNRi0zeeUW
1T7npnlmWBIzZME85p6Y8cpw0EZjQoi7Sggm6A8ycVg53/UuBw6QTDJ6qwYpZeGD
GoRR7QOxE3a3le1uECRB/nT2VzZNhBqlHQm4ddQww8c=
-----END CERTIFICATE-----
